; ModuleID = '22/24.c'
source_filename = "22/24.c"
target datalayout = "e-m:e-p270:32:32-p271:32:32-p272:64:64-i64:64-f80:128-n8:16:32:64-S128"
target triple = "x86_64-pc-linux-gnu"

@.str = private unnamed_addr constant [3 x i8] c"%d\00", align 1
@.str.1 = private unnamed_addr constant [4 x i8] c"No\0A\00", align 1
@.str.2 = private unnamed_addr constant [4 x i8] c"%d\0A\00", align 1

; Function Attrs: noinline nounwind uwtable
define dso_local void @main() #0 {
  %1 = alloca [300 x i32], align 16
  %2 = alloca i32, align 4
  %3 = alloca i32, align 4
  %4 = alloca i32, align 4
  %5 = alloca i32, align 4
  %6 = alloca i32, align 4
  %7 = bitcast [300 x i32]* %1 to i8*
  call void @llvm.memset.p0i8.i64(i8* align 16 %7, i8 0, i64 1200, i1 false)
  store i32 0, i32* %2, align 4
  br label %8

8:                                                ; preds = %15, %0
  %9 = load i32, i32* %2, align 4
  %10 = zext i32 %9 to i64
  %11 = getelementptr inbounds [300 x i32], [300 x i32]* %1, i64 0, i64 %10
  %12 = call i32 (i8*, ...) @__isoc99_scanf(i8* getelementptr inbounds ([3 x i8], [3 x i8]* @.str, i64 0, i64 0), i32* %11)
  %13 = load i32, i32* %2, align 4
  %14 = add i32 %13, 1
  store i32 %14, i32* %2, align 4
  br label %15

15:                                               ; preds = %8
  %16 = call i32 @getchar()
  %17 = icmp eq i32 %16, 44
  br i1 %17, label %8, label %18

18:                                               ; preds = %15
  %19 = load i32, i32* %2, align 4
  store i32 %19, i32* %5, align 4
  %20 = load i32, i32* %5, align 4
  %21 = icmp eq i32 %20, 1
  br i1 %21, label %22, label %24

22:                                               ; preds = %18
  %23 = call i32 (i8*, ...) @printf(i8* getelementptr inbounds ([4 x i8], [4 x i8]* @.str.1, i64 0, i64 0))
  br label %109

24:                                               ; preds = %18
  store i32 0, i32* %2, align 4
  br label %25

25:                                               ; preds = %74, %24
  %26 = load i32, i32* %2, align 4
  %27 = load i32, i32* %5, align 4
  %28 = icmp ult i32 %26, %27
  br i1 %28, label %29, label %77

29:                                               ; preds = %25
  %30 = load i32, i32* %2, align 4
  store i32 %30, i32* %4, align 4
  %31 = load i32, i32* %2, align 4
  %32 = add i32 %31, 1
  store i32 %32, i32* %3, align 4
  br label %33

33:                                               ; preds = %50, %29
  %34 = load i32, i32* %3, align 4
  %35 = load i32, i32* %5, align 4
  %36 = icmp ult i32 %34, %35
  br i1 %36, label %37, label %53

37:                                               ; preds = %33
  %38 = load i32, i32* %4, align 4
  %39 = zext i32 %38 to i64
  %40 = getelementptr inbounds [300 x i32], [300 x i32]* %1, i64 0, i64 %39
  %41 = load i32, i32* %40, align 4
  %42 = load i32, i32* %3, align 4
  %43 = zext i32 %42 to i64
  %44 = getelementptr inbounds [300 x i32], [300 x i32]* %1, i64 0, i64 %43
  %45 = load i32, i32* %44, align 4
  %46 = icmp ult i32 %41, %45
  br i1 %46, label %47, label %49

47:                                               ; preds = %37
  %48 = load i32, i32* %3, align 4
  store i32 %48, i32* %4, align 4
  br label %49

49:                                               ; preds = %47, %37
  br label %50

50:                                               ; preds = %49
  %51 = load i32, i32* %3, align 4
  %52 = add i32 %51, 1
  store i32 %52, i32* %3, align 4
  br label %33

53:                                               ; preds = %33
  %54 = load i32, i32* %4, align 4
  %55 = load i32, i32* %2, align 4
  %56 = icmp ne i32 %54, %55
  br i1 %56, label %57, label %73

57:                                               ; preds = %53
  %58 = load i32, i32* %4, align 4
  %59 = zext i32 %58 to i64
  %60 = getelementptr inbounds [300 x i32], [300 x i32]* %1, i64 0, i64 %59
  %61 = load i32, i32* %60, align 4
  store i32 %61, i32* %6, align 4
  %62 = load i32, i32* %2, align 4
  %63 = zext i32 %62 to i64
  %64 = getelementptr inbounds [300 x i32], [300 x i32]* %1, i64 0, i64 %63
  %65 = load i32, i32* %64, align 4
  %66 = load i32, i32* %4, align 4
  %67 = zext i32 %66 to i64
  %68 = getelementptr inbounds [300 x i32], [300 x i32]* %1, i64 0, i64 %67
  store i32 %65, i32* %68, align 4
  %69 = load i32, i32* %6, align 4
  %70 = load i32, i32* %2, align 4
  %71 = zext i32 %70 to i64
  %72 = getelementptr inbounds [300 x i32], [300 x i32]* %1, i64 0, i64 %71
  store i32 %69, i32* %72, align 4
  br label %73

73:                                               ; preds = %57, %53
  br label %74

74:                                               ; preds = %73
  %75 = load i32, i32* %2, align 4
  %76 = add i32 %75, 1
  store i32 %76, i32* %2, align 4
  br label %25

77:                                               ; preds = %25
  store i32 1, i32* %2, align 4
  br label %78

78:                                               ; preds = %93, %77
  %79 = load i32, i32* %2, align 4
  %80 = load i32, i32* %5, align 4
  %81 = icmp ult i32 %79, %80
  br i1 %81, label %82, label %96

82:                                               ; preds = %78
  %83 = load i32, i32* %2, align 4
  %84 = zext i32 %83 to i64
  %85 = getelementptr inbounds [300 x i32], [300 x i32]* %1, i64 0, i64 %84
  %86 = load i32, i32* %85, align 4
  %87 = getelementptr inbounds [300 x i32], [300 x i32]* %1, i64 0, i64 0
  %88 = load i32, i32* %87, align 16
  %89 = icmp ult i32 %86, %88
  br i1 %89, label %90, label %92

90:                                               ; preds = %82
  %91 = load i32, i32* %2, align 4
  store i32 %91, i32* %3, align 4
  br label %96

92:                                               ; preds = %82
  br label %93

93:                                               ; preds = %92
  %94 = load i32, i32* %2, align 4
  %95 = add i32 %94, 1
  store i32 %95, i32* %2, align 4
  br label %78

96:                                               ; preds = %90, %78
  %97 = load i32, i32* %2, align 4
  %98 = load i32, i32* %5, align 4
  %99 = icmp eq i32 %97, %98
  br i1 %99, label %100, label %102

100:                                              ; preds = %96
  %101 = call i32 (i8*, ...) @printf(i8* getelementptr inbounds ([4 x i8], [4 x i8]* @.str.1, i64 0, i64 0))
  br label %108

102:                                              ; preds = %96
  %103 = load i32, i32* %3, align 4
  %104 = zext i32 %103 to i64
  %105 = getelementptr inbounds [300 x i32], [300 x i32]* %1, i64 0, i64 %104
  %106 = load i32, i32* %105, align 4
  %107 = call i32 (i8*, ...) @printf(i8* getelementptr inbounds ([4 x i8], [4 x i8]* @.str.2, i64 0, i64 0), i32 %106)
  br label %108

108:                                              ; preds = %102, %100
  br label %109

109:                                              ; preds = %108, %22
  ret void
}

; Function Attrs: argmemonly nounwind willreturn
declare void @llvm.memset.p0i8.i64(i8* nocapture writeonly, i8, i64, i1 immarg) #1

declare dso_local i32 @__isoc99_scanf(i8*, ...) #2

declare dso_local i32 @getchar() #2

declare dso_local i32 @printf(i8*, ...) #2


!llvm.module.flags = !{!0}
!llvm.ident = !{!1}

!0 = !{i32 1, !"wchar_size", i32 4}
!1 = !{!"clang version 10.0.0-4ubuntu1 "}
